; Function Attrs: mustprogress nounwind uwtable
define internal fastcc void @_ZN12_GLOBAL__N_113cURLEasyGuardD2Ev(ptr %.0.val) unnamed_addr #4 align 2 personality ptr @__gxx_personality_v0 {
  %.not = icmp eq ptr %.0.val, null
  br i1 %.not, label %2, label %1

1:                                                ; preds = %0
  invoke void @curl_easy_cleanup(ptr noundef nonnull %.0.val)
          to label %2 unwind label %3

2:                                                ; preds = %1, %0
  ret void

3:                                                ; preds = %1
  %4 = landingpad { ptr, i32 }
          catch ptr null
  %5 = extractvalue { ptr, i32 } %4, 0
  tail call void @__clang_call_terminate(ptr %5) #31
  unreachable
}